; Function Attrs: nounwind uwtable
define ptr @l_Lean_PrettyPrinter_Delaborator_fieldNotationCandidate_x3f___lambda__6(i8 noundef zeroext %0, ptr noundef %1, ptr noundef %2, ptr noundef %3, ptr noundef %4, ptr readnone captures(none) %5, ptr noundef %6, ptr noundef %7, ptr noundef %8, ptr noundef %9, ptr noundef %10) local_unnamed_addr #0 {
  %12 = load ptr, ptr @l_Lean_PrettyPrinter_Delaborator_fieldNotationCandidate_x3f___lambda__6___closed__1, align 8, !tbaa !4
  %13 = tail call zeroext i8 @l_Lean_TagAttribute_hasTag(ptr noundef %12, ptr noundef %4, ptr noundef %2) #4
  %14 = icmp eq i8 %13, 0
  br i1 %14, label %15, label %17

15:                                               ; preds = %11
  %16 = tail call ptr @l_Lean_PrettyPrinter_Delaborator_fieldNotationCandidate_x3f___lambda__5(i8 noundef zeroext %0, ptr noundef %1, ptr noundef %2, ptr noundef %3, ptr nonnull poison, ptr noundef %6, ptr noundef %7, ptr noundef %8, ptr noundef %9, ptr noundef %10)
  br label %87

17:                                               ; preds = %11
  %18 = ptrtoint ptr %9 to i64
  %19 = and i64 %18, 1
  %.not = icmp eq i64 %19, 0
  br i1 %.not, label %20, label %lean_dec.exit32

20:                                               ; preds = %17
  %21 = load i32, ptr %9, align 4, !tbaa !8
  %22 = icmp sgt i32 %21, 1
  br i1 %22, label %23, label %25, !prof !11

23:                                               ; preds = %20
  %24 = add nsw i32 %21, -1
  store i32 %24, ptr %9, align 4, !tbaa !8
  br label %lean_dec.exit32

25:                                               ; preds = %20
  %.not.i = icmp eq i32 %21, 0
  br i1 %.not.i, label %lean_dec.exit32, label %26

26:                                               ; preds = %25
  tail call void @lean_dec_ref_cold(ptr noundef nonnull %9) #4
  br label %lean_dec.exit32

lean_dec.exit32:                                  ; preds = %26, %25, %23, %17
  %27 = ptrtoint ptr %8 to i64
  %28 = and i64 %27, 1
  %.not45 = icmp eq i64 %28, 0
  br i1 %.not45, label %29, label %lean_dec.exit31

29:                                               ; preds = %lean_dec.exit32
  %30 = load i32, ptr %8, align 4, !tbaa !8
  %31 = icmp sgt i32 %30, 1
  br i1 %31, label %32, label %34, !prof !11

32:                                               ; preds = %29
  %33 = add nsw i32 %30, -1
  store i32 %33, ptr %8, align 4, !tbaa !8
  br label %lean_dec.exit31

34:                                               ; preds = %29
  %.not.i33 = icmp eq i32 %30, 0
  br i1 %.not.i33, label %lean_dec.exit31, label %35

35:                                               ; preds = %34
  tail call void @lean_dec_ref_cold(ptr noundef nonnull %8) #4
  br label %lean_dec.exit31

lean_dec.exit31:                                  ; preds = %35, %34, %32, %lean_dec.exit32
  %36 = ptrtoint ptr %7 to i64
  %37 = and i64 %36, 1
  %.not46 = icmp eq i64 %37, 0
  br i1 %.not46, label %38, label %lean_dec.exit30

38:                                               ; preds = %lean_dec.exit31
  %39 = load i32, ptr %7, align 4, !tbaa !8
  %40 = icmp sgt i32 %39, 1
  br i1 %40, label %41, label %43, !prof !11

41:                                               ; preds = %38
  %42 = add nsw i32 %39, -1
  store i32 %42, ptr %7, align 4, !tbaa !8
  br label %lean_dec.exit30

43:                                               ; preds = %38
  %.not.i35 = icmp eq i32 %39, 0
  br i1 %.not.i35, label %lean_dec.exit30, label %44

44:                                               ; preds = %43
  tail call void @lean_dec_ref_cold(ptr noundef nonnull %7) #4
  br label %lean_dec.exit30

lean_dec.exit30:                                  ; preds = %44, %43, %41, %lean_dec.exit31
  %45 = ptrtoint ptr %6 to i64
  %46 = and i64 %45, 1
  %.not47 = icmp eq i64 %46, 0
  br i1 %.not47, label %47, label %lean_dec.exit29

47:                                               ; preds = %lean_dec.exit30
  %48 = load i32, ptr %6, align 4, !tbaa !8
  %49 = icmp sgt i32 %48, 1
  br i1 %49, label %50, label %52, !prof !11

50:                                               ; preds = %47
  %51 = add nsw i32 %48, -1
  store i32 %51, ptr %6, align 4, !tbaa !8
  br label %lean_dec.exit29

52:                                               ; preds = %47
  %.not.i37 = icmp eq i32 %48, 0
  br i1 %.not.i37, label %lean_dec.exit29, label %53

53:                                               ; preds = %52
  tail call void @lean_dec_ref_cold(ptr noundef nonnull %6) #4
  br label %lean_dec.exit29

lean_dec.exit29:                                  ; preds = %53, %52, %50, %lean_dec.exit30
  %54 = ptrtoint ptr %3 to i64
  %55 = and i64 %54, 1
  %.not48 = icmp eq i64 %55, 0
  br i1 %.not48, label %56, label %lean_dec.exit28

56:                                               ; preds = %lean_dec.exit29
  %57 = load i32, ptr %3, align 4, !tbaa !8
  %58 = icmp sgt i32 %57, 1
  br i1 %58, label %59, label %61, !prof !11

59:                                               ; preds = %56
  %60 = add nsw i32 %57, -1
  store i32 %60, ptr %3, align 4, !tbaa !8
  br label %lean_dec.exit28

61:                                               ; preds = %56
  %.not.i39 = icmp eq i32 %57, 0
  br i1 %.not.i39, label %lean_dec.exit28, label %62

62:                                               ; preds = %61
  tail call void @lean_dec_ref_cold(ptr noundef nonnull %3) #4
  br label %lean_dec.exit28

lean_dec.exit28:                                  ; preds = %62, %61, %59, %lean_dec.exit29
  %63 = ptrtoint ptr %2 to i64
  %64 = and i64 %63, 1
  %.not49 = icmp eq i64 %64, 0
  br i1 %.not49, label %65, label %lean_dec.exit27

65:                                               ; preds = %lean_dec.exit28
  %66 = load i32, ptr %2, align 4, !tbaa !8
  %67 = icmp sgt i32 %66, 1
  br i1 %67, label %68, label %70, !prof !11

68:                                               ; preds = %65
  %69 = add nsw i32 %66, -1
  store i32 %69, ptr %2, align 4, !tbaa !8
  br label %lean_dec.exit27

70:                                               ; preds = %65
  %.not.i41 = icmp eq i32 %66, 0
  br i1 %.not.i41, label %lean_dec.exit27, label %71

71:                                               ; preds = %70
  tail call void @lean_dec_ref_cold(ptr noundef nonnull %2) #4
  br label %lean_dec.exit27

lean_dec.exit27:                                  ; preds = %71, %70, %68, %lean_dec.exit28
  %72 = ptrtoint ptr %1 to i64
  %73 = and i64 %72, 1
  %.not50 = icmp eq i64 %73, 0
  br i1 %.not50, label %74, label %lean_dec.exit

74:                                               ; preds = %lean_dec.exit27
  %75 = load i32, ptr %1, align 4, !tbaa !8
  %76 = icmp sgt i32 %75, 1
  br i1 %76, label %77, label %79, !prof !11

77:                                               ; preds = %74
  %78 = add nsw i32 %75, -1
  store i32 %78, ptr %1, align 4, !tbaa !8
  br label %lean_dec.exit

79:                                               ; preds = %74
  %.not.i43 = icmp eq i32 %75, 0
  br i1 %.not.i43, label %lean_dec.exit, label %80

80:                                               ; preds = %79
  tail call void @lean_dec_ref_cold(ptr noundef nonnull %1) #4
  br label %lean_dec.exit

lean_dec.exit:                                    ; preds = %80, %79, %77, %lean_dec.exit27
  tail call void @lean_inc_heartbeat() #4
  %81 = tail call noalias ptr @mi_malloc_small(i64 noundef 24) #4
  %82 = icmp eq ptr %81, null
  br i1 %82, label %83, label %lean_alloc_ctor.exit

83:                                               ; preds = %lean_dec.exit
  tail call void @lean_internal_panic_out_of_memory() #5
  unreachable

lean_alloc_ctor.exit:                             ; preds = %lean_dec.exit
  %84 = getelementptr inbounds nuw i8, ptr %81, i64 4
  store i32 1, ptr %81, align 4, !tbaa !8
  store i32 131096, ptr %84, align 4
  %85 = getelementptr inbounds nuw i8, ptr %81, i64 8
  store ptr inttoptr (i64 1 to ptr), ptr %85, align 8, !tbaa !4
  %86 = getelementptr inbounds nuw i8, ptr %81, i64 16
  store ptr %10, ptr %86, align 8, !tbaa !4
  br label %87

87:                                               ; preds = %lean_alloc_ctor.exit, %15
  %.0 = phi ptr [ %16, %15 ], [ %81, %lean_alloc_ctor.exit ]
  ret ptr %.0
}